target datalayout = "e-m:e-p270:32:32-p271:32:32-p272:64:64-i64:64-i128:128-f80:128-n8:16:32:64-S128"
target triple = "x86_64-pc-linux-gnu"

%struct.mbedtls_oid_descriptor_t = type { ptr, i64, ptr, ptr }
%struct.mbedtls_asn1_buf = type { i32, i64, ptr }
%struct.oid_md_hmac_t = type { %struct.mbedtls_oid_descriptor_t, i32 }

; Function Attrs: nounwind uwtable
define internal ptr @oid_md_hmac_from_asn1(ptr noundef %0) #0 {
  %2 = alloca ptr, align 8
  %3 = alloca ptr, align 8
  %4 = alloca ptr, align 8
  %5 = alloca ptr, align 8
  %6 = alloca i32, align 4
  store ptr %0, ptr %3, align 8, !tbaa !3
  call void @llvm.lifetime.start.p0(i64 8, ptr %4) #6
  store ptr @oid_md_hmac, ptr %4, align 8, !tbaa !11
  call void @llvm.lifetime.start.p0(i64 8, ptr %5) #6
  %7 = load ptr, ptr %4, align 8, !tbaa !11
  store ptr %7, ptr %5, align 8, !tbaa !18
  %8 = load ptr, ptr %4, align 8, !tbaa !11
  %9 = icmp eq ptr %8, null
  br i1 %9, label %13, label %10

10:                                               ; preds = %1
  %11 = load ptr, ptr %3, align 8, !tbaa !3
  %12 = icmp eq ptr %11, null
  br i1 %12, label %13, label %14

13:                                               ; preds = %10, %1
  store ptr null, ptr %2, align 8
  store i32 1, ptr %6, align 4
  br label %47

14:                                               ; preds = %10
  br label %15

15:                                               ; preds = %42, %14
  %16 = load ptr, ptr %5, align 8, !tbaa !18
  %17 = getelementptr inbounds nuw %struct.mbedtls_oid_descriptor_t, ptr %16, i32 0, i32 0
  %18 = load ptr, ptr %17, align 8, !tbaa !20
  %19 = icmp ne ptr %18, null
  br i1 %19, label %20, label %46

20:                                               ; preds = %15
  %21 = load ptr, ptr %5, align 8, !tbaa !18
  %22 = getelementptr inbounds nuw %struct.mbedtls_oid_descriptor_t, ptr %21, i32 0, i32 1
  %23 = load i64, ptr %22, align 8, !tbaa !21
  %24 = load ptr, ptr %3, align 8, !tbaa !3
  %25 = getelementptr inbounds nuw %struct.mbedtls_asn1_buf, ptr %24, i32 0, i32 1
  %26 = load i64, ptr %25, align 8, !tbaa !22
  %27 = icmp eq i64 %23, %26
  br i1 %27, label %28, label %42

28:                                               ; preds = %20
  %29 = load ptr, ptr %5, align 8, !tbaa !18
  %30 = getelementptr inbounds nuw %struct.mbedtls_oid_descriptor_t, ptr %29, i32 0, i32 0
  %31 = load ptr, ptr %30, align 8, !tbaa !20
  %32 = load ptr, ptr %3, align 8, !tbaa !3
  %33 = getelementptr inbounds nuw %struct.mbedtls_asn1_buf, ptr %32, i32 0, i32 2
  %34 = load ptr, ptr %33, align 8, !tbaa !25
  %35 = load ptr, ptr %3, align 8, !tbaa !3
  %36 = getelementptr inbounds nuw %struct.mbedtls_asn1_buf, ptr %35, i32 0, i32 1
  %37 = load i64, ptr %36, align 8, !tbaa !22
  %38 = call i32 @memcmp(ptr noundef %31, ptr noundef %34, i64 noundef %37) #7
  %39 = icmp eq i32 %38, 0
  br i1 %39, label %40, label %42

40:                                               ; preds = %28
  %41 = load ptr, ptr %4, align 8, !tbaa !11
  store ptr %41, ptr %2, align 8
  store i32 1, ptr %6, align 4
  br label %47

42:                                               ; preds = %28, %20
  %43 = load ptr, ptr %4, align 8, !tbaa !11
  %44 = getelementptr inbounds nuw %struct.oid_md_hmac_t, ptr %43, i32 1
  store ptr %44, ptr %4, align 8, !tbaa !11
  %45 = load ptr, ptr %4, align 8, !tbaa !11
  store ptr %45, ptr %5, align 8, !tbaa !18
  br label %15, !llvm.loop !59

46:                                               ; preds = %15
  store ptr null, ptr %2, align 8
  store i32 1, ptr %6, align 4
  br label %47

47:                                               ; preds = %46, %40, %13
  call void @llvm.lifetime.end.p0(i64 8, ptr %5) #6
  call void @llvm.lifetime.end.p0(i64 8, ptr %4) #6
  %48 = load ptr, ptr %2, align 8
  ret ptr %48
}

; Function Attrs: nounwind uwtable
define hidden i32 @mbedtls_oid_get_md_hmac(ptr noundef %0, ptr noundef %1) #0 {
  %3 = alloca i32, align 4
  %4 = alloca ptr, align 8
  %5 = alloca ptr, align 8
  %6 = alloca ptr, align 8
  %7 = alloca i32, align 4
  store ptr %0, ptr %4, align 8, !tbaa !3
  store ptr %1, ptr %5, align 8, !tbaa !11
  call void @llvm.lifetime.start.p0(i64 8, ptr %6) #6
  %8 = load ptr, ptr %4, align 8, !tbaa !3
  %9 = call ptr @oid_md_hmac_from_asn1(ptr noundef %8)
  store ptr %9, ptr %6, align 8, !tbaa !11
  %10 = load ptr, ptr %6, align 8, !tbaa !11
  %11 = icmp eq ptr %10, null
  br i1 %11, label %12, label %13

12:                                               ; preds = %2
  store i32 -46, ptr %3, align 4
  store i32 1, ptr %7, align 4
  br label %18

13:                                               ; preds = %2
  %14 = load ptr, ptr %6, align 8, !tbaa !11
  %15 = getelementptr inbounds nuw %struct.oid_md_hmac_t, ptr %14, i32 0, i32 1
  %16 = load i32, ptr %15, align 8, !tbaa !30
  %17 = load ptr, ptr %5, align 8, !tbaa !11
  store i32 %16, ptr %17, align 4, !tbaa !32
  store i32 0, ptr %3, align 4
  store i32 1, ptr %7, align 4
  br label %18

18:                                               ; preds = %13, %12
  call void @llvm.lifetime.end.p0(i64 8, ptr %6) #6
  %19 = load i32, ptr %3, align 4
  ret i32 %19
}